; Function Attrs: mustprogress uwtable
define dso_local void @_ZN4Luau7CodeGen3A6418AssemblyBuilderA647placeVREPKcNS1_11RegisterA64ES5_S5_th(ptr noundef nonnull align 8 dereferenceable(176) %0, ptr noundef %1, i8 %2, i8 %3, i8 %4, i16 noundef zeroext %5, i8 noundef zeroext %6) local_unnamed_addr #0 align 2 {
  %8 = getelementptr inbounds nuw i8, ptr %0, i64 80
  %9 = load i8, ptr %8, align 8, !tbaa !14, !range !46, !noundef !47
  %10 = trunc nuw i8 %9 to i1
  %11 = lshr i8 %2, 3
  %12 = zext nneg i8 %11 to i32
  %13 = lshr i8 %3, 3
  %14 = zext nneg i8 %13 to i32
  %15 = lshr i8 %4, 3
  %16 = zext nneg i8 %15 to i32
  br i1 %10, label %17, label %._crit_edge

17:                                               ; preds = %7
  tail call void (ptr, ptr, ...) @_ZN4Luau7CodeGen3A6418AssemblyBuilderA649logAppendEPKcz(ptr noundef nonnull align 8 dereferenceable(176) %0, ptr noundef nonnull @.str.78, ptr noundef %1, i32 noundef %12, i32 noundef %14, i32 noundef %16)
  br label %._crit_edge

._crit_edge:                                      ; preds = %7, %17
  %18 = shl nuw nsw i32 %14, 5
  %19 = zext i8 %6 to i32
  %20 = shl nuw nsw i32 %19, 10
  %21 = or disjoint i32 %18, %20
  %22 = shl nuw nsw i32 %16, 16
  %23 = or i32 %21, %22
  %24 = zext i16 %5 to i32
  %25 = shl i32 %24, 21
  %26 = or disjoint i32 %23, %25
  %27 = or disjoint i32 %26, %12
  %28 = or i32 %27, 1073741824
  %29 = getelementptr inbounds nuw i8, ptr %0, i64 160
  %30 = load ptr, ptr %29, align 8, !tbaa !39
  %31 = getelementptr inbounds nuw i8, ptr %30, i64 4
  store ptr %31, ptr %29, align 8, !tbaa !39
  store i32 %28, ptr %30, align 4, !tbaa !48
  %32 = getelementptr inbounds nuw i8, ptr %0, i64 168
  %33 = load ptr, ptr %32, align 8, !tbaa !40
  %34 = icmp eq ptr %33, %31
  br i1 %34, label %35, label %_ZN4Luau7CodeGen3A6418AssemblyBuilderA646commitEv.exit

35:                                               ; preds = %._crit_edge
  tail call void @_ZN4Luau7CodeGen3A6418AssemblyBuilderA646extendEv(ptr noundef nonnull align 8 dereferenceable(176) %0)
  br label %_ZN4Luau7CodeGen3A6418AssemblyBuilderA646commitEv.exit

_ZN4Luau7CodeGen3A6418AssemblyBuilderA646commitEv.exit: ; preds = %._crit_edge, %35
  ret void
}